target datalayout = "e-m:e-p270:32:32-p271:32:32-p272:64:64-i64:64-i128:128-f80:128-n8:16:32:64-S128"
target triple = "x86_64-pc-linux-gnu"

%struct.test_fixture = type { ptr, ptr, i32, i32, i32, ptr, i32, ptr }
%struct.ossl_cmp_msg_st = type { ptr, ptr, ptr, ptr, ptr, ptr }
%struct.ossl_cmp_pkibody_st = type { i32, %union.anon }
%union.anon = type { ptr }

@.str.14 = private unnamed_addr constant [31 x i8] c"../openssl/test/cmp_msg_test.c\00", align 1
@.str.43 = private unnamed_addr constant [24 x i8] c"test_cmp_create_pollrep\00", align 1
@.str.80 = private unnamed_addr constant [8 x i8] c"pollrep\00", align 1
@.str.81 = private unnamed_addr constant [72 x i8] c"ossl_cmp_pollrepcontent_get0_pollrep(pollrep->body-> value.pollRep, 77)\00", align 1
@.str.82 = private unnamed_addr constant [72 x i8] c"ossl_cmp_pollrepcontent_get0_pollrep(pollrep->body-> value.pollRep, 88)\00", align 1

; Function Attrs: nounwind uwtable
define internal void @tear_down(ptr noundef %0) #0 {
  %2 = alloca ptr, align 8
  store ptr %0, ptr %2, align 8, !tbaa !17
  %3 = load ptr, ptr %2, align 8, !tbaa !17
  %4 = getelementptr inbounds nuw %struct.test_fixture, ptr %3, i32 0, i32 1
  %5 = load ptr, ptr %4, align 8, !tbaa !28
  call void @OSSL_CMP_CTX_free(ptr noundef %5)
  %6 = load ptr, ptr %2, align 8, !tbaa !17
  %7 = getelementptr inbounds nuw %struct.test_fixture, ptr %6, i32 0, i32 5
  %8 = load ptr, ptr %7, align 8, !tbaa !37
  call void @OSSL_CMP_MSG_free(ptr noundef %8)
  %9 = load ptr, ptr %2, align 8, !tbaa !17
  %10 = getelementptr inbounds nuw %struct.test_fixture, ptr %9, i32 0, i32 7
  %11 = load ptr, ptr %10, align 8, !tbaa !30
  call void @OSSL_CMP_PKISI_free(ptr noundef %11)
  %12 = load ptr, ptr %2, align 8, !tbaa !17
  call void @CRYPTO_free(ptr noundef %12, ptr noundef @.str.14, i32 noundef 43)
  ret void
}

; Function Attrs: nounwind uwtable
define internal i32 @execute_pollrep_create(ptr noundef %0) #0 {
  %2 = alloca i32, align 4
  %3 = alloca ptr, align 8
  %4 = alloca ptr, align 8
  %5 = alloca i32, align 4
  %6 = alloca i32, align 4
  store ptr %0, ptr %3, align 8, !tbaa !17
  call void @llvm.lifetime.start.p0(i64 8, ptr %4) #4
  call void @llvm.lifetime.start.p0(i64 4, ptr %5) #4
  store i32 0, ptr %5, align 4, !tbaa !19
  %7 = load ptr, ptr %3, align 8, !tbaa !17
  %8 = getelementptr inbounds nuw %struct.test_fixture, ptr %7, i32 0, i32 1
  %9 = load ptr, ptr %8, align 8, !tbaa !28
  %10 = call ptr @ossl_cmp_pollRep_new(ptr noundef %9, i32 noundef 77, i64 noundef 2000)
  store ptr %10, ptr %4, align 8, !tbaa !38
  %11 = load ptr, ptr %4, align 8, !tbaa !38
  %12 = call i32 @test_ptr(ptr noundef @.str.14, i32 noundef 473, ptr noundef @.str.80, ptr noundef %11)
  %13 = icmp ne i32 %12, 0
  br i1 %13, label %15, label %14

14:                                               ; preds = %1
  store i32 0, ptr %2, align 4
  store i32 1, ptr %6, align 4
  br label %39

15:                                               ; preds = %1
  %16 = load ptr, ptr %4, align 8, !tbaa !38
  %17 = getelementptr inbounds nuw %struct.ossl_cmp_msg_st, ptr %16, i32 0, i32 1
  %18 = load ptr, ptr %17, align 8, !tbaa !48
  %19 = getelementptr inbounds nuw %struct.ossl_cmp_pkibody_st, ptr %18, i32 0, i32 1
  %20 = load ptr, ptr %19, align 8, !tbaa !53
  %21 = call ptr @ossl_cmp_pollrepcontent_get0_pollrep(ptr noundef %20, i32 noundef 77)
  %22 = call i32 @test_ptr(ptr noundef @.str.14, i32 noundef 476, ptr noundef @.str.81, ptr noundef %21)
  %23 = icmp ne i32 %22, 0
  br i1 %23, label %25, label %24

24:                                               ; preds = %15
  br label %36

25:                                               ; preds = %15
  %26 = load ptr, ptr %4, align 8, !tbaa !38
  %27 = getelementptr inbounds nuw %struct.ossl_cmp_msg_st, ptr %26, i32 0, i32 1
  %28 = load ptr, ptr %27, align 8, !tbaa !48
  %29 = getelementptr inbounds nuw %struct.ossl_cmp_pkibody_st, ptr %28, i32 0, i32 1
  %30 = load ptr, ptr %29, align 8, !tbaa !53
  %31 = call ptr @ossl_cmp_pollrepcontent_get0_pollrep(ptr noundef %30, i32 noundef 88)
  %32 = call i32 @test_ptr_null(ptr noundef @.str.14, i32 noundef 479, ptr noundef @.str.82, ptr noundef %31)
  %33 = icmp ne i32 %32, 0
  br i1 %33, label %35, label %34

34:                                               ; preds = %25
  br label %36

35:                                               ; preds = %25
  store i32 1, ptr %5, align 4, !tbaa !19
  br label %36

36:                                               ; preds = %35, %34, %24
  %37 = load ptr, ptr %4, align 8, !tbaa !38
  call void @OSSL_CMP_MSG_free(ptr noundef %37)
  %38 = load i32, ptr %5, align 4, !tbaa !19
  store i32 %38, ptr %2, align 4
  store i32 1, ptr %6, align 4
  br label %39

39:                                               ; preds = %36, %14
  call void @llvm.lifetime.end.p0(i64 4, ptr %5) #4
  call void @llvm.lifetime.end.p0(i64 8, ptr %4) #4
  %40 = load i32, ptr %2, align 4
  ret i32 %40
}

; Function Attrs: nounwind uwtable
define internal i32 @test_cmp_create_pollrep() #0 {
  %1 = alloca i32, align 4
  %2 = alloca ptr, align 8
  %3 = alloca i32, align 4
  %4 = alloca i32, align 4
  call void @llvm.lifetime.start.p0(i64 8, ptr %2) #4
  %5 = call ptr @set_up(ptr noundef @.str.43)
  store ptr %5, ptr %2, align 8, !tbaa !17
  call void @llvm.lifetime.start.p0(i64 4, ptr %3) #4
  store i32 0, ptr %3, align 4, !tbaa !19
  %6 = load ptr, ptr %2, align 8, !tbaa !17
  %7 = icmp eq ptr %6, null
  br i1 %7, label %8, label %9

8:                                                ; preds = %0
  store i32 0, ptr %1, align 4
  store i32 1, ptr %4, align 4
  br label %18

9:                                                ; preds = %0
  %10 = load ptr, ptr %2, align 8, !tbaa !17
  %11 = icmp ne ptr %10, null
  br i1 %11, label %12, label %16

12:                                               ; preds = %9
  %13 = load ptr, ptr %2, align 8, !tbaa !17
  %14 = call i32 @execute_pollrep_create(ptr noundef %13)
  store i32 %14, ptr %3, align 4, !tbaa !19
  %15 = load ptr, ptr %2, align 8, !tbaa !17
  call void @tear_down(ptr noundef %15)
  br label %16

16:                                               ; preds = %12, %9
  %17 = load i32, ptr %3, align 4, !tbaa !19
  store i32 %17, ptr %1, align 4
  store i32 1, ptr %4, align 4
  br label %18

18:                                               ; preds = %16, %8
  call void @llvm.lifetime.end.p0(i64 4, ptr %3) #4
  call void @llvm.lifetime.end.p0(i64 8, ptr %2) #4
  %19 = load i32, ptr %1, align 4
  ret i32 %19
}