; Function Attrs: nounwind uwtable
define internal range(i32 0, 2) i32 @test_cmp_create_pollrep() #0 {
  %1 = tail call fastcc ptr @set_up(ptr noundef nonnull @.str.43)
  %2 = icmp eq ptr %1, null
  br i1 %2, label %26, label %3

3:                                                ; preds = %0
  %4 = getelementptr i8, ptr %1, i64 8
  %.val = load ptr, ptr %4, align 8, !tbaa !25
  %5 = tail call ptr @ossl_cmp_pollRep_new(ptr noundef %.val, i32 noundef 77, i64 noundef 2000) #4
  %6 = tail call i32 @test_ptr(ptr noundef nonnull @.str.14, i32 noundef 473, ptr noundef nonnull @.str.80, ptr noundef %5) #4
  %.not.i = icmp eq i32 %6, 0
  br i1 %.not.i, label %execute_pollrep_create.exit, label %7

7:                                                ; preds = %3
  %8 = getelementptr inbounds nuw i8, ptr %5, i64 8
  %9 = load ptr, ptr %8, align 8, !tbaa !31
  %10 = getelementptr inbounds nuw i8, ptr %9, i64 8
  %11 = load ptr, ptr %10, align 8, !tbaa !37
  %12 = tail call ptr @ossl_cmp_pollrepcontent_get0_pollrep(ptr noundef %11, i32 noundef 77) #4
  %13 = tail call i32 @test_ptr(ptr noundef nonnull @.str.14, i32 noundef 476, ptr noundef nonnull @.str.81, ptr noundef %12) #4
  %.not7.i = icmp eq i32 %13, 0
  br i1 %.not7.i, label %20, label %14

14:                                               ; preds = %7
  %15 = load ptr, ptr %8, align 8, !tbaa !31
  %16 = getelementptr inbounds nuw i8, ptr %15, i64 8
  %17 = load ptr, ptr %16, align 8, !tbaa !37
  %18 = tail call ptr @ossl_cmp_pollrepcontent_get0_pollrep(ptr noundef %17, i32 noundef 88) #4
  %19 = tail call i32 @test_ptr_null(ptr noundef nonnull @.str.14, i32 noundef 479, ptr noundef nonnull @.str.82, ptr noundef %18) #4
  %.not8.i = icmp ne i32 %19, 0
  %spec.select.i = zext i1 %.not8.i to i32
  br label %20

20:                                               ; preds = %14, %7
  %.0.i = phi i32 [ 0, %7 ], [ %spec.select.i, %14 ]
  tail call void @OSSL_CMP_MSG_free(ptr noundef nonnull %5) #4
  br label %execute_pollrep_create.exit

execute_pollrep_create.exit:                      ; preds = %3, %20
  %.06.i = phi i32 [ %.0.i, %20 ], [ 0, %3 ]
  %21 = load ptr, ptr %4, align 8, !tbaa !25
  tail call void @OSSL_CMP_CTX_free(ptr noundef %21) #4
  %22 = getelementptr inbounds nuw i8, ptr %1, i64 32
  %23 = load ptr, ptr %22, align 8, !tbaa !26
  tail call void @OSSL_CMP_MSG_free(ptr noundef %23) #4
  %24 = getelementptr inbounds nuw i8, ptr %1, i64 48
  %25 = load ptr, ptr %24, align 8, !tbaa !27
  tail call void @OSSL_CMP_PKISI_free(ptr noundef %25) #4
  tail call void @CRYPTO_free(ptr noundef nonnull %1, ptr noundef nonnull @.str.14, i32 noundef 43) #4
  br label %26

26:                                               ; preds = %0, %execute_pollrep_create.exit
  %.05 = phi i32 [ %.06.i, %execute_pollrep_create.exit ], [ 0, %0 ]
  ret i32 %.05
}